target datalayout = "e-m:e-p270:32:32-p271:32:32-p272:64:64-i64:64-i128:128-f80:128-n8:16:32:64-S128"
target triple = "x86_64-pc-linux-gnu"

%struct.anon.2 = type { %union.protocol_binary_response_header }
%union.protocol_binary_response_header = type { %struct.anon.3 }
%struct.anon.3 = type { i8, i8, i16, i8, i8, i16, i32, i32, i64 }

@hickup_thread_running = dso_local global i8 0, align 1
@.str.62 = private unnamed_addr constant [10 x i8] c"testapp.c\00", align 1
@.str.249 = private unnamed_addr constant [25 x i8] c"size > sizeof(*response)\00", align 1
@__PRETTY_FUNCTION__.safe_recv_packet = private unnamed_addr constant [39 x i8] c"_Bool safe_recv_packet(void *, size_t)\00", align 1
@allow_closed_read = internal global i8 0, align 1

; Function Attrs: inlinehint nounwind uwtable
define internal i32 @__bswap_32(i32 noundef %0) #9 {
  %2 = alloca i32, align 4
  store i32 %0, ptr %2, align 4, !tbaa !10
  %3 = load i32, ptr %2, align 4, !tbaa !10
  %4 = and i32 %3, -16777216
  %5 = lshr i32 %4, 24
  %6 = load i32, ptr %2, align 4, !tbaa !10
  %7 = and i32 %6, 16711680
  %8 = lshr i32 %7, 8
  %9 = or i32 %5, %8
  %10 = load i32, ptr %2, align 4, !tbaa !10
  %11 = and i32 %10, 65280
  %12 = shl i32 %11, 8
  %13 = or i32 %9, %12
  %14 = load i32, ptr %2, align 4, !tbaa !10
  %15 = and i32 %14, 255
  %16 = shl i32 %15, 24
  %17 = or i32 %13, %16
  ret i32 %17
}

; Function Attrs: inlinehint nounwind uwtable
define internal zeroext i16 @__bswap_16(i16 noundef zeroext %0) #9 {
  %2 = alloca i16, align 2
  store i16 %0, ptr %2, align 2, !tbaa !41
  %3 = load i16, ptr %2, align 2, !tbaa !41
  %4 = zext i16 %3 to i32
  %5 = ashr i32 %4, 8
  %6 = and i32 %5, 255
  %7 = load i16, ptr %2, align 2, !tbaa !41
  %8 = zext i16 %7 to i32
  %9 = and i32 %8, 255
  %10 = shl i32 %9, 8
  %11 = or i32 %6, %10
  %12 = trunc i32 %11 to i16
  ret i16 %12
}

; Function Attrs: nounwind uwtable
define internal zeroext i1 @safe_recv_packet(ptr noundef %0, i64 noundef %1) #0 {
  %3 = alloca i1, align 1
  %4 = alloca ptr, align 8
  %5 = alloca i64, align 8
  %6 = alloca ptr, align 8
  %7 = alloca i32, align 4
  %8 = alloca i64, align 8
  %9 = alloca ptr, align 8
  store ptr %0, ptr %4, align 8, !tbaa !4
  store i64 %1, ptr %5, align 8, !tbaa !36
  call void @llvm.lifetime.start.p0(i64 8, ptr %6) #12
  %10 = load ptr, ptr %4, align 8, !tbaa !4
  store ptr %10, ptr %6, align 8, !tbaa !4
  %11 = load i64, ptr %5, align 8, !tbaa !36
  %12 = icmp ugt i64 %11, 24
  br i1 %12, label %13, label %14

13:                                               ; preds = %2
  br label %15

14:                                               ; preds = %2
  call void @__assert_fail(ptr noundef @.str.249, ptr noundef @.str.62, i32 noundef 1039, ptr noundef @__PRETTY_FUNCTION__.safe_recv_packet) #13
  unreachable

15:                                               ; preds = %13
  %16 = load ptr, ptr %6, align 8, !tbaa !4
  %17 = call zeroext i1 @safe_recv(ptr noundef %16, i64 noundef 24)
  br i1 %17, label %19, label %18

18:                                               ; preds = %15
  store i1 false, ptr %3, align 1
  store i32 1, ptr %7, align 4
  br label %58

19:                                               ; preds = %15
  %20 = load ptr, ptr %6, align 8, !tbaa !4
  %21 = getelementptr inbounds nuw %struct.anon.2, ptr %20, i32 0, i32 0
  %22 = getelementptr inbounds nuw %struct.anon.3, ptr %21, i32 0, i32 2
  %23 = load i16, ptr %22, align 2, !tbaa !14
  %24 = call zeroext i16 @__bswap_16(i16 noundef zeroext %23)
  %25 = load ptr, ptr %6, align 8, !tbaa !4
  %26 = getelementptr inbounds nuw %struct.anon.2, ptr %25, i32 0, i32 0
  %27 = getelementptr inbounds nuw %struct.anon.3, ptr %26, i32 0, i32 2
  store i16 %24, ptr %27, align 2, !tbaa !14
  %28 = load ptr, ptr %6, align 8, !tbaa !4
  %29 = getelementptr inbounds nuw %struct.anon.2, ptr %28, i32 0, i32 0
  %30 = getelementptr inbounds nuw %struct.anon.3, ptr %29, i32 0, i32 5
  %31 = load i16, ptr %30, align 2, !tbaa !14
  %32 = call zeroext i16 @__bswap_16(i16 noundef zeroext %31)
  %33 = load ptr, ptr %6, align 8, !tbaa !4
  %34 = getelementptr inbounds nuw %struct.anon.2, ptr %33, i32 0, i32 0
  %35 = getelementptr inbounds nuw %struct.anon.3, ptr %34, i32 0, i32 5
  store i16 %32, ptr %35, align 2, !tbaa !14
  %36 = load ptr, ptr %6, align 8, !tbaa !4
  %37 = getelementptr inbounds nuw %struct.anon.2, ptr %36, i32 0, i32 0
  %38 = getelementptr inbounds nuw %struct.anon.3, ptr %37, i32 0, i32 6
  %39 = load i32, ptr %38, align 8, !tbaa !14
  %40 = call i32 @__bswap_32(i32 noundef %39)
  %41 = load ptr, ptr %6, align 8, !tbaa !4
  %42 = getelementptr inbounds nuw %struct.anon.2, ptr %41, i32 0, i32 0
  %43 = getelementptr inbounds nuw %struct.anon.3, ptr %42, i32 0, i32 6
  store i32 %40, ptr %43, align 8, !tbaa !14
  call void @llvm.lifetime.start.p0(i64 8, ptr %8) #12
  store i64 24, ptr %8, align 8, !tbaa !36
  call void @llvm.lifetime.start.p0(i64 8, ptr %9) #12
  %44 = load ptr, ptr %4, align 8, !tbaa !4
  store ptr %44, ptr %9, align 8, !tbaa !8
  %45 = load i64, ptr %8, align 8, !tbaa !36
  %46 = load ptr, ptr %9, align 8, !tbaa !8
  %47 = getelementptr inbounds nuw i8, ptr %46, i64 %45
  store ptr %47, ptr %9, align 8, !tbaa !8
  %48 = load ptr, ptr %9, align 8, !tbaa !8
  %49 = load ptr, ptr %6, align 8, !tbaa !4
  %50 = getelementptr inbounds nuw %struct.anon.2, ptr %49, i32 0, i32 0
  %51 = getelementptr inbounds nuw %struct.anon.3, ptr %50, i32 0, i32 6
  %52 = load i32, ptr %51, align 8, !tbaa !14
  %53 = zext i32 %52 to i64
  %54 = call zeroext i1 @safe_recv(ptr noundef %48, i64 noundef %53)
  br i1 %54, label %56, label %55

55:                                               ; preds = %19
  store i1 false, ptr %3, align 1
  store i32 1, ptr %7, align 4
  br label %57

56:                                               ; preds = %19
  store i1 true, ptr %3, align 1
  store i32 1, ptr %7, align 4
  br label %57

57:                                               ; preds = %56, %55
  call void @llvm.lifetime.end.p0(i64 8, ptr %9) #12
  call void @llvm.lifetime.end.p0(i64 8, ptr %8) #12
  br label %58

58:                                               ; preds = %57, %18
  call void @llvm.lifetime.end.p0(i64 8, ptr %6) #12
  %59 = load i1, ptr %3, align 1
  ret i1 %59
}

; Function Attrs: nounwind uwtable
define internal ptr @binary_hickup_recv_verification_thread(ptr noundef %0) #0 {
  %2 = alloca ptr, align 8
  %3 = alloca ptr, align 8
  store ptr %0, ptr %2, align 8, !tbaa !4
  call void @llvm.lifetime.start.p0(i64 8, ptr %3) #12
  %4 = call noalias ptr @malloc(i64 noundef 66560) #17
  store ptr %4, ptr %3, align 8, !tbaa !4
  %5 = load ptr, ptr %3, align 8, !tbaa !4
  %6 = icmp ne ptr %5, null
  br i1 %6, label %7, label %23

7:                                                ; preds = %1
  br label %8

8:                                                ; preds = %11, %7
  %9 = load ptr, ptr %3, align 8, !tbaa !4
  %10 = call zeroext i1 @safe_recv_packet(ptr noundef %9, i64 noundef 66560)
  br i1 %10, label %11, label %21

11:                                               ; preds = %8
  %12 = load ptr, ptr %3, align 8, !tbaa !4
  %13 = load ptr, ptr %3, align 8, !tbaa !4
  %14 = getelementptr inbounds nuw %struct.anon.2, ptr %13, i32 0, i32 0
  %15 = getelementptr inbounds nuw %struct.anon.3, ptr %14, i32 0, i32 1
  %16 = load i8, ptr %15, align 1, !tbaa !14
  %17 = load ptr, ptr %3, align 8, !tbaa !4
  %18 = getelementptr inbounds nuw %struct.anon.2, ptr %17, i32 0, i32 0
  %19 = getelementptr inbounds nuw %struct.anon.3, ptr %18, i32 0, i32 5
  %20 = load i16, ptr %19, align 2, !tbaa !14
  call void @validate_response_header(ptr noundef %12, i8 noundef zeroext %16, i16 noundef zeroext %20)
  br label %8, !llvm.loop !91

21:                                               ; preds = %8
  %22 = load ptr, ptr %3, align 8, !tbaa !4
  call void @free(ptr noundef %22) #12
  br label %23

23:                                               ; preds = %21, %1
  store volatile i8 0, ptr @hickup_thread_running, align 1, !tbaa !31
  store i8 0, ptr @allow_closed_read, align 1, !tbaa !31
  call void @llvm.lifetime.end.p0(i64 8, ptr %3) #12
  ret ptr null
}