; Function Attrs: nounwind uwtable
define internal noalias noundef ptr @binary_hickup_recv_verification_thread(ptr readnone captures(none) %0) #0 {
  %2 = tail call noalias dereferenceable_or_null(66560) ptr @malloc(i64 noundef 66560) #27
  %.not = icmp eq ptr %2, null
  br i1 %.not, label %24, label %.split6

.split6:                                          ; preds = %1
  %3 = tail call fastcc zeroext i1 @safe_recv(ptr noundef nonnull %2, i64 noundef 24)
  br i1 %3, label %safe_recv_packet.exit, label %._crit_edge

safe_recv_packet.exit:                            ; preds = %.split6
  %4 = getelementptr inbounds nuw i8, ptr %2, i64 2
  %5 = load i16, ptr %4, align 2, !tbaa !6
  %rev.i.i = tail call noundef i16 @llvm.bswap.i16(i16 %5)
  store i16 %rev.i.i, ptr %4, align 2, !tbaa !6
  %6 = getelementptr inbounds nuw i8, ptr %2, i64 6
  %7 = load i16, ptr %6, align 2, !tbaa !6
  %rev.i14.i = tail call noundef i16 @llvm.bswap.i16(i16 %7)
  store i16 %rev.i14.i, ptr %6, align 2, !tbaa !6
  %8 = getelementptr inbounds nuw i8, ptr %2, i64 8
  %9 = load i32, ptr %8, align 8, !tbaa !6
  %10 = tail call noundef i32 @llvm.bswap.i32(i32 %9)
  store i32 %10, ptr %8, align 8, !tbaa !6
  %11 = getelementptr inbounds nuw i8, ptr %2, i64 24
  %12 = zext i32 %10 to i64
  %13 = tail call fastcc zeroext i1 @safe_recv(ptr noundef %11, i64 noundef %12)
  br i1 %13, label %.split.lr.ph, label %._crit_edge

.split.lr.ph:                                     ; preds = %safe_recv_packet.exit
  %14 = getelementptr inbounds nuw i8, ptr %2, i64 1
  br label %.split

.split:                                           ; preds = %.split.lr.ph, %safe_recv_packet.exit10
  %15 = load i8, ptr %14, align 1, !tbaa !6
  %16 = load i16, ptr %6, align 2, !tbaa !6
  tail call fastcc void @validate_response_header(ptr noundef %2, i8 noundef zeroext %15, i16 noundef zeroext %16)
  %17 = tail call fastcc zeroext i1 @safe_recv(ptr noundef nonnull %2, i64 noundef 24)
  br i1 %17, label %safe_recv_packet.exit10, label %._crit_edge

safe_recv_packet.exit10:                          ; preds = %.split
  %18 = load i16, ptr %4, align 2, !tbaa !6
  %rev.i.i8 = tail call noundef i16 @llvm.bswap.i16(i16 %18)
  store i16 %rev.i.i8, ptr %4, align 2, !tbaa !6
  %19 = load i16, ptr %6, align 2, !tbaa !6
  %rev.i14.i9 = tail call noundef i16 @llvm.bswap.i16(i16 %19)
  store i16 %rev.i14.i9, ptr %6, align 2, !tbaa !6
  %20 = load i32, ptr %8, align 8, !tbaa !6
  %21 = tail call noundef i32 @llvm.bswap.i32(i32 %20)
  store i32 %21, ptr %8, align 8, !tbaa !6
  %22 = zext i32 %21 to i64
  %23 = tail call fastcc zeroext i1 @safe_recv(ptr noundef %11, i64 noundef %22)
  br i1 %23, label %.split, label %._crit_edge, !llvm.loop !85

._crit_edge:                                      ; preds = %.split, %safe_recv_packet.exit10, %.split6, %safe_recv_packet.exit
  tail call void @free(ptr noundef nonnull %2) #21
  br label %24

24:                                               ; preds = %._crit_edge, %1
  store volatile i8 0, ptr @hickup_thread_running, align 1, !tbaa !52
  store i1 false, ptr @allow_closed_read, align 1
  ret ptr null
}